target datalayout = "e-m:e-p270:32:32-p271:32:32-p272:64:64-i64:64-i128:128-f80:128-n8:16:32:64-S128"
target triple = "x86_64-pc-linux-gnu"

%struct._generic_N_Vector = type { ptr, ptr, ptr }
%struct._N_VectorContent_Serial = type { i64, i32, ptr }

; Function Attrs: nounwind uwtable
define i32 @N_VBufUnpack_Serial(ptr noundef %0, ptr noundef %1) #0 {
  %3 = alloca ptr, align 8
  %4 = alloca ptr, align 8
  %5 = alloca ptr, align 8
  %6 = alloca i64, align 8
  %7 = alloca i64, align 8
  %8 = alloca ptr, align 8
  %9 = alloca ptr, align 8
  store ptr %0, ptr %3, align 8, !tbaa !10
  store ptr %1, ptr %4, align 8, !tbaa !77
  call void @llvm.lifetime.start.p0(i64 8, ptr %5) #6
  %10 = load ptr, ptr %3, align 8, !tbaa !10
  %11 = getelementptr inbounds nuw %struct._generic_N_Vector, ptr %10, i32 0, i32 2
  %12 = load ptr, ptr %11, align 8, !tbaa !68
  store ptr %12, ptr %5, align 8, !tbaa !7
  call void @llvm.lifetime.start.p0(i64 8, ptr %6) #6
  call void @llvm.lifetime.start.p0(i64 8, ptr %7) #6
  call void @llvm.lifetime.start.p0(i64 8, ptr %8) #6
  store ptr null, ptr %8, align 8, !tbaa !69
  call void @llvm.lifetime.start.p0(i64 8, ptr %9) #6
  store ptr null, ptr %9, align 8, !tbaa !69
  %13 = load ptr, ptr %3, align 8, !tbaa !10
  %14 = getelementptr inbounds nuw %struct._generic_N_Vector, ptr %13, i32 0, i32 0
  %15 = load ptr, ptr %14, align 8, !tbaa !61
  %16 = getelementptr inbounds nuw %struct._N_VectorContent_Serial, ptr %15, i32 0, i32 0
  %17 = load i64, ptr %16, align 8, !tbaa !62
  store i64 %17, ptr %7, align 8, !tbaa !3
  %18 = load ptr, ptr %3, align 8, !tbaa !10
  %19 = getelementptr inbounds nuw %struct._generic_N_Vector, ptr %18, i32 0, i32 0
  %20 = load ptr, ptr %19, align 8, !tbaa !61
  %21 = getelementptr inbounds nuw %struct._N_VectorContent_Serial, ptr %20, i32 0, i32 2
  %22 = load ptr, ptr %21, align 8, !tbaa !67
  store ptr %22, ptr %8, align 8, !tbaa !69
  %23 = load ptr, ptr %4, align 8, !tbaa !77
  store ptr %23, ptr %9, align 8, !tbaa !69
  store i64 0, ptr %6, align 8, !tbaa !3
  br label %24

24:                                               ; preds = %36, %2
  %25 = load i64, ptr %6, align 8, !tbaa !3
  %26 = load i64, ptr %7, align 8, !tbaa !3
  %27 = icmp slt i64 %25, %26
  br i1 %27, label %28, label %39

28:                                               ; preds = %24
  %29 = load ptr, ptr %9, align 8, !tbaa !69
  %30 = load i64, ptr %6, align 8, !tbaa !3
  %31 = getelementptr inbounds double, ptr %29, i64 %30
  %32 = load double, ptr %31, align 8, !tbaa !72
  %33 = load ptr, ptr %8, align 8, !tbaa !69
  %34 = load i64, ptr %6, align 8, !tbaa !3
  %35 = getelementptr inbounds double, ptr %33, i64 %34
  store double %32, ptr %35, align 8, !tbaa !72
  br label %36

36:                                               ; preds = %28
  %37 = load i64, ptr %6, align 8, !tbaa !3
  %38 = add nsw i64 %37, 1
  store i64 %38, ptr %6, align 8, !tbaa !3
  br label %24

39:                                               ; preds = %24
  call void @llvm.lifetime.end.p0(i64 8, ptr %9) #6
  call void @llvm.lifetime.end.p0(i64 8, ptr %8) #6
  call void @llvm.lifetime.end.p0(i64 8, ptr %7) #6
  call void @llvm.lifetime.end.p0(i64 8, ptr %6) #6
  call void @llvm.lifetime.end.p0(i64 8, ptr %5) #6
  ret i32 0
}